; Function Attrs: mustprogress nofree norecurse nosync nounwind willreturn memory(argmem: readwrite) uwtable
define internal noundef zeroext i1 @"_ZNSt17_Function_handlerIFN4llvm5ErrorERNS0_11raw_ostreamEEZN5clang17GlobalModuleIndex10writeIndexERNS5_11FileManagerERKNS5_18PCHContainerReaderENS0_9StringRefEE3$_0E10_M_managerERSt9_Any_dataRKSF_St18_Manager_operation"(ptr nocapture noundef nonnull writeonly align 8 dereferenceable(16) %0, ptr noundef nonnull align 8 dereferenceable(16) %1, i32 noundef %2) #19 align 2 {
  switch i32 %2, label %"_ZNSt14_Function_base13_Base_managerIZN5clang17GlobalModuleIndex10writeIndexERNS1_11FileManagerERKNS1_18PCHContainerReaderEN4llvm9StringRefEE3$_0E10_M_managerERSt9_Any_dataRKSC_St18_Manager_operation.exit" [
    i32 1, label %4
    i32 0, label %5
    i32 2, label %6
  ]

4:                                                ; preds = %3
  store ptr %1, ptr %0, align 8
  br label %"_ZNSt14_Function_base13_Base_managerIZN5clang17GlobalModuleIndex10writeIndexERNS1_11FileManagerERKNS1_18PCHContainerReaderEN4llvm9StringRefEE3$_0E10_M_managerERSt9_Any_dataRKSC_St18_Manager_operation.exit"

5:                                                ; preds = %3
  store ptr null, ptr %0, align 8
  br label %"_ZNSt14_Function_base13_Base_managerIZN5clang17GlobalModuleIndex10writeIndexERNS1_11FileManagerERKNS1_18PCHContainerReaderEN4llvm9StringRefEE3$_0E10_M_managerERSt9_Any_dataRKSC_St18_Manager_operation.exit"

6:                                                ; preds = %3
  %.val = load i64, ptr %1, align 8
  store i64 %.val, ptr %0, align 8
  br label %"_ZNSt14_Function_base13_Base_managerIZN5clang17GlobalModuleIndex10writeIndexERNS1_11FileManagerERKNS1_18PCHContainerReaderEN4llvm9StringRefEE3$_0E10_M_managerERSt9_Any_dataRKSC_St18_Manager_operation.exit"

"_ZNSt14_Function_base13_Base_managerIZN5clang17GlobalModuleIndex10writeIndexERNS1_11FileManagerERKNS1_18PCHContainerReaderEN4llvm9StringRefEE3$_0E10_M_managerERSt9_Any_dataRKSC_St18_Manager_operation.exit": ; preds = %3, %6, %5, %4
  ret i1 false
}